; Function Attrs: nounwind uwtable
define hidden void @uv__async_close(ptr noundef captures(none) %0) local_unnamed_addr #0 {
  %2 = getelementptr inbounds nuw i8, ptr %0, i64 120
  %3 = getelementptr inbounds nuw i8, ptr %0, i64 48
  store atomic i32 1, ptr %2 seq_cst, align 4
  br label %4

4:                                                ; preds = %.backedge, %1
  %.07.i = phi i32 [ 0, %1 ], [ %.07.i.be, %.backedge ]
  %5 = load atomic i32, ptr %3 seq_cst, align 4
  %6 = icmp eq i32 %5, 0
  br i1 %6, label %uv__async_spin.exit, label %7

7:                                                ; preds = %4
  tail call void asm sideeffect "rep; nop", "~{memory},~{dirflag},~{fpsr},~{flags}"() #8, !srcloc !4
  %8 = add nuw nsw i32 %.07.i, 1
  %exitcond.not.i = icmp eq i32 %8, 997
  br i1 %exitcond.not.i, label %9, label %.backedge

.backedge:                                        ; preds = %7, %9
  %.07.i.be = phi i32 [ %8, %7 ], [ 0, %9 ]
  br label %4

9:                                                ; preds = %7
  %10 = tail call i32 @sched_yield() #8
  br label %.backedge

uv__async_spin.exit:                              ; preds = %4
  %11 = getelementptr inbounds nuw i8, ptr %0, i64 104
  %12 = load ptr, ptr %11, align 8
  %13 = getelementptr inbounds nuw i8, ptr %0, i64 112
  %14 = load ptr, ptr %13, align 8
  store ptr %12, ptr %14, align 8
  %15 = load ptr, ptr %13, align 8
  %16 = getelementptr inbounds nuw i8, ptr %12, i64 8
  store ptr %15, ptr %16, align 8
  %17 = getelementptr inbounds nuw i8, ptr %0, i64 88
  %18 = load i32, ptr %17, align 8
  %19 = and i32 %18, 4
  %20 = icmp eq i32 %19, 0
  br i1 %20, label %30, label %21

21:                                               ; preds = %uv__async_spin.exit
  %22 = and i32 %18, -5
  store i32 %22, ptr %17, align 8
  %23 = and i32 %18, 8
  %.not = icmp eq i32 %23, 0
  br i1 %.not, label %30, label %24

24:                                               ; preds = %21
  %25 = getelementptr inbounds nuw i8, ptr %0, i64 8
  %26 = load ptr, ptr %25, align 8
  %27 = getelementptr inbounds nuw i8, ptr %26, i64 8
  %28 = load i32, ptr %27, align 8
  %29 = add i32 %28, -1
  store i32 %29, ptr %27, align 8
  br label %30

30:                                               ; preds = %21, %24, %uv__async_spin.exit
  ret void
}